target datalayout = "e-m:e-p270:32:32-p271:32:32-p272:64:64-i64:64-i128:128-f80:128-n8:16:32:64-S128"
target triple = "x86_64-pc-linux-gnu"

%struct._rtpstream_id = type { %struct._address, i16, %struct._address, i16, i32 }
%struct._address = type { i32, i32, ptr, ptr }

; Function Attrs: inlinehint nounwind null_pointer_is_valid sspstrong uwtable
define internal zeroext i1 @addresses_equal(ptr noundef %0, ptr noundef %1) #4 {
  %3 = alloca i1, align 1
  %4 = alloca ptr, align 8
  %5 = alloca ptr, align 8
  store ptr %0, ptr %4, align 8
  store ptr %1, ptr %5, align 8
  %6 = load ptr, ptr %4, align 8
  %7 = getelementptr inbounds nuw %struct._address, ptr %6, i32 0, i32 0
  %8 = load i32, ptr %7, align 8
  %9 = load ptr, ptr %5, align 8
  %10 = getelementptr inbounds nuw %struct._address, ptr %9, i32 0, i32 0
  %11 = load i32, ptr %10, align 8
  %12 = icmp eq i32 %8, %11
  br i1 %12, label %13, label %40

13:                                               ; preds = %2
  %14 = load ptr, ptr %4, align 8
  %15 = getelementptr inbounds nuw %struct._address, ptr %14, i32 0, i32 1
  %16 = load i32, ptr %15, align 4
  %17 = load ptr, ptr %5, align 8
  %18 = getelementptr inbounds nuw %struct._address, ptr %17, i32 0, i32 1
  %19 = load i32, ptr %18, align 4
  %20 = icmp eq i32 %16, %19
  br i1 %20, label %21, label %40

21:                                               ; preds = %13
  %22 = load ptr, ptr %4, align 8
  %23 = getelementptr inbounds nuw %struct._address, ptr %22, i32 0, i32 1
  %24 = load i32, ptr %23, align 4
  %25 = icmp eq i32 %24, 0
  br i1 %25, label %39, label %26

26:                                               ; preds = %21
  %27 = load ptr, ptr %4, align 8
  %28 = getelementptr inbounds nuw %struct._address, ptr %27, i32 0, i32 2
  %29 = load ptr, ptr %28, align 8
  %30 = load ptr, ptr %5, align 8
  %31 = getelementptr inbounds nuw %struct._address, ptr %30, i32 0, i32 2
  %32 = load ptr, ptr %31, align 8
  %33 = load ptr, ptr %4, align 8
  %34 = getelementptr inbounds nuw %struct._address, ptr %33, i32 0, i32 1
  %35 = load i32, ptr %34, align 4
  %36 = sext i32 %35 to i64
  %37 = call i32 @memcmp(ptr noundef %29, ptr noundef %32, i64 noundef %36) #11
  %38 = icmp eq i32 %37, 0
  br i1 %38, label %39, label %40

39:                                               ; preds = %26, %21
  store i1 true, ptr %3, align 1
  br label %41

40:                                               ; preds = %26, %13, %2
  store i1 false, ptr %3, align 1
  br label %41

41:                                               ; preds = %40, %39
  %42 = load i1, ptr %3, align 1
  ret i1 %42
}

; Function Attrs: null_pointer_is_valid sspstrong uwtable
define hidden zeroext i1 @rtpstream_id_equal(ptr noundef %0, ptr noundef %1, i32 noundef %2) #0 {
  %4 = alloca i1, align 1
  %5 = alloca ptr, align 8
  %6 = alloca ptr, align 8
  %7 = alloca i32, align 4
  %8 = alloca i8, align 1
  store ptr %0, ptr %5, align 8
  store ptr %1, ptr %6, align 8
  store i32 %2, ptr %7, align 4
  %9 = load ptr, ptr %5, align 8
  %10 = getelementptr inbounds nuw %struct._rtpstream_id, ptr %9, i32 0, i32 0
  %11 = load ptr, ptr %6, align 8
  %12 = getelementptr inbounds nuw %struct._rtpstream_id, ptr %11, i32 0, i32 0
  %13 = call zeroext i1 @addresses_equal(ptr noundef %10, ptr noundef %12)
  br i1 %13, label %14, label %56

14:                                               ; preds = %3
  %15 = load ptr, ptr %5, align 8
  %16 = getelementptr inbounds nuw %struct._rtpstream_id, ptr %15, i32 0, i32 1
  %17 = load i16, ptr %16, align 8
  %18 = zext i16 %17 to i32
  %19 = load ptr, ptr %6, align 8
  %20 = getelementptr inbounds nuw %struct._rtpstream_id, ptr %19, i32 0, i32 1
  %21 = load i16, ptr %20, align 8
  %22 = zext i16 %21 to i32
  %23 = icmp eq i32 %18, %22
  br i1 %23, label %24, label %56

24:                                               ; preds = %14
  %25 = load ptr, ptr %5, align 8
  %26 = getelementptr inbounds nuw %struct._rtpstream_id, ptr %25, i32 0, i32 2
  %27 = load ptr, ptr %6, align 8
  %28 = getelementptr inbounds nuw %struct._rtpstream_id, ptr %27, i32 0, i32 2
  %29 = call zeroext i1 @addresses_equal(ptr noundef %26, ptr noundef %28)
  br i1 %29, label %30, label %56

30:                                               ; preds = %24
  %31 = load ptr, ptr %5, align 8
  %32 = getelementptr inbounds nuw %struct._rtpstream_id, ptr %31, i32 0, i32 3
  %33 = load i16, ptr %32, align 8
  %34 = zext i16 %33 to i32
  %35 = load ptr, ptr %6, align 8
  %36 = getelementptr inbounds nuw %struct._rtpstream_id, ptr %35, i32 0, i32 3
  %37 = load i16, ptr %36, align 8
  %38 = zext i16 %37 to i32
  %39 = icmp eq i32 %34, %38
  br i1 %39, label %40, label %56

40:                                               ; preds = %30
  call void @llvm.lifetime.start.p0(i64 1, ptr %8) #10
  store i8 1, ptr %8, align 1
  %41 = load i32, ptr %7, align 4
  %42 = and i32 %41, 1
  %43 = icmp ne i32 %42, 0
  br i1 %43, label %44, label %53

44:                                               ; preds = %40
  %45 = load ptr, ptr %5, align 8
  %46 = getelementptr inbounds nuw %struct._rtpstream_id, ptr %45, i32 0, i32 4
  %47 = load i32, ptr %46, align 4
  %48 = load ptr, ptr %6, align 8
  %49 = getelementptr inbounds nuw %struct._rtpstream_id, ptr %48, i32 0, i32 4
  %50 = load i32, ptr %49, align 4
  %51 = icmp ne i32 %47, %50
  br i1 %51, label %52, label %53

52:                                               ; preds = %44
  store i8 0, ptr %8, align 1
  br label %53

53:                                               ; preds = %52, %44, %40
  %54 = load i8, ptr %8, align 1, !range !6, !noundef !7
  %55 = trunc i8 %54 to i1
  store i1 %55, ptr %4, align 1
  call void @llvm.lifetime.end.p0(i64 1, ptr %8) #10
  br label %57

56:                                               ; preds = %30, %24, %14, %3
  store i1 false, ptr %4, align 1
  br label %57

57:                                               ; preds = %56, %53
  %58 = load i1, ptr %4, align 1
  ret i1 %58
}