; Function Attrs: mustprogress nofree nounwind null_pointer_is_valid sspstrong willreturn memory(read, inaccessiblemem: none) uwtable
define hidden zeroext i1 @rtpstream_id_equal(ptr noundef readonly captures(none) %0, ptr noundef readonly captures(none) %1, i32 noundef %2) local_unnamed_addr #3 {
  %4 = load i32, ptr %0, align 8
  %5 = load i32, ptr %1, align 8
  %6 = icmp eq i32 %4, %5
  br i1 %6, label %7, label %addresses_equal.exit

7:                                                ; preds = %3
  %8 = getelementptr inbounds nuw i8, ptr %0, i64 4
  %9 = load i32, ptr %8, align 4
  %10 = getelementptr inbounds nuw i8, ptr %1, i64 4
  %11 = load i32, ptr %10, align 4
  %12 = icmp eq i32 %9, %11
  br i1 %12, label %13, label %addresses_equal.exit

13:                                               ; preds = %7
  %14 = icmp eq i32 %9, 0
  br i1 %14, label %22, label %15

15:                                               ; preds = %13
  %16 = getelementptr inbounds nuw i8, ptr %0, i64 8
  %17 = load ptr, ptr %16, align 8
  %18 = getelementptr inbounds nuw i8, ptr %1, i64 8
  %19 = load ptr, ptr %18, align 8
  %20 = sext i32 %9 to i64
  %bcmp.i = tail call i32 @bcmp(ptr %17, ptr %19, i64 %20)
  %21 = icmp eq i32 %bcmp.i, 0
  br i1 %21, label %22, label %addresses_equal.exit

22:                                               ; preds = %15, %13
  %23 = getelementptr inbounds nuw i8, ptr %0, i64 24
  %24 = load i16, ptr %23, align 8
  %25 = getelementptr inbounds nuw i8, ptr %1, i64 24
  %26 = load i16, ptr %25, align 8
  %27 = icmp eq i16 %24, %26
  br i1 %27, label %28, label %addresses_equal.exit

28:                                               ; preds = %22
  %29 = getelementptr inbounds nuw i8, ptr %0, i64 32
  %30 = getelementptr inbounds nuw i8, ptr %1, i64 32
  %31 = load i32, ptr %29, align 8
  %32 = load i32, ptr %30, align 8
  %33 = icmp eq i32 %31, %32
  br i1 %33, label %34, label %addresses_equal.exit

34:                                               ; preds = %28
  %35 = getelementptr inbounds nuw i8, ptr %0, i64 36
  %36 = load i32, ptr %35, align 4
  %37 = getelementptr inbounds nuw i8, ptr %1, i64 36
  %38 = load i32, ptr %37, align 4
  %39 = icmp eq i32 %36, %38
  br i1 %39, label %40, label %addresses_equal.exit

40:                                               ; preds = %34
  %41 = icmp eq i32 %36, 0
  br i1 %41, label %49, label %42

42:                                               ; preds = %40
  %43 = getelementptr inbounds nuw i8, ptr %0, i64 40
  %44 = load ptr, ptr %43, align 8
  %45 = getelementptr inbounds nuw i8, ptr %1, i64 40
  %46 = load ptr, ptr %45, align 8
  %47 = sext i32 %36 to i64
  %bcmp.i15 = tail call i32 @bcmp(ptr %44, ptr %46, i64 %47)
  %48 = icmp eq i32 %bcmp.i15, 0
  br i1 %48, label %49, label %addresses_equal.exit

49:                                               ; preds = %42, %40
  %50 = getelementptr inbounds nuw i8, ptr %0, i64 56
  %51 = load i16, ptr %50, align 8
  %52 = getelementptr inbounds nuw i8, ptr %1, i64 56
  %53 = load i16, ptr %52, align 8
  %54 = icmp eq i16 %51, %53
  br i1 %54, label %55, label %addresses_equal.exit

55:                                               ; preds = %49
  %56 = and i32 %2, 1
  %.not = icmp eq i32 %56, 0
  br i1 %.not, label %addresses_equal.exit, label %57

57:                                               ; preds = %55
  %58 = getelementptr inbounds nuw i8, ptr %0, i64 60
  %59 = load i32, ptr %58, align 4
  %60 = getelementptr inbounds nuw i8, ptr %1, i64 60
  %61 = load i32, ptr %60, align 4
  %.not13 = icmp eq i32 %59, %61
  br label %addresses_equal.exit

addresses_equal.exit:                             ; preds = %42, %34, %28, %15, %7, %3, %57, %22, %49, %55
  %.012 = phi i1 [ true, %55 ], [ %.not13, %57 ], [ false, %49 ], [ false, %22 ], [ false, %3 ], [ false, %7 ], [ false, %15 ], [ false, %28 ], [ false, %34 ], [ false, %42 ]
  ret i1 %.012
}